; Function Attrs: mustprogress uwtable
define void @_ZNK6google8protobuf10Reflection28SetRepeatedEnumValueInternalEPNS0_7MessageEPKNS0_15FieldDescriptorEii(ptr noundef nonnull align 8 dereferenceable(112) %this, ptr noundef %message, ptr noundef %field, i32 noundef %index, i32 noundef %value) local_unnamed_addr #4 align 2 {
entry:
  %is_extension_.i = getelementptr inbounds i8, ptr %field, i64 1
  %bf.load.i = load i8, ptr %is_extension_.i, align 1
  %0 = and i8 %bf.load.i, 8
  %bf.cast.i.not = icmp eq i8 %0, 0
  br i1 %bf.cast.i.not, label %if.else, label %if.then

if.then:                                          ; preds = %entry
  %extensions_offset_.i.i = getelementptr inbounds i8, ptr %this, i64 40
  %1 = load i32, ptr %extensions_offset_.i.i, align 8
  %idx.ext.i.i = zext i32 %1 to i64
  %add.ptr.i.i = getelementptr inbounds i8, ptr %message, i64 %idx.ext.i.i
  %number_.i = getelementptr inbounds i8, ptr %field, i64 4
  %2 = load i32, ptr %number_.i, align 4
  tail call void @_ZN6google8protobuf8internal12ExtensionSet15SetRepeatedEnumEiii(ptr noundef nonnull align 8 dereferenceable(24) %add.ptr.i.i, i32 noundef %2, i32 noundef %index, i32 noundef %value)
  br label %if.end

if.else:                                          ; preds = %entry
  %call.i = tail call noundef ptr @_ZNK6google8protobuf10Reflection10MutableRawINS0_13RepeatedFieldIiEEEEPT_PNS0_7MessageEPKNS0_15FieldDescriptorE(ptr noundef nonnull align 8 dereferenceable(112) %this, ptr noundef %message, ptr noundef nonnull %field)
  %arena_or_elements_.i.i.i.i = getelementptr inbounds i8, ptr %call.i, i64 8
  %3 = load ptr, ptr %arena_or_elements_.i.i.i.i, align 8
  %idxprom.i.i = sext i32 %index to i64
  %arrayidx.i.i = getelementptr inbounds i32, ptr %3, i64 %idxprom.i.i
  store i32 %value, ptr %arrayidx.i.i, align 4
  br label %if.end

if.end:                                           ; preds = %if.else, %if.then
  ret void
}